target datalayout = "e-m:e-p270:32:32-p271:32:32-p272:64:64-i64:64-i128:128-f80:128-n8:16:32:64-S128"
target triple = "x86_64-pc-linux-gnu"

%struct.CBuf = type { ptr, i64 }
%struct.CSzAr = type { ptr, ptr, ptr, ptr, ptr, i32, i32, i32 }
%struct.CSzArEx = type { %struct.CSzAr, i64, i64, ptr, ptr, ptr, ptr, ptr, %struct.CBuf }

; Function Attrs: nounwind uwtable
define i64 @SzArEx_GetFolderStreamPos(ptr noundef %0, i32 noundef %1, i32 noundef %2) #0 {
  %4 = alloca ptr, align 8
  %5 = alloca i32, align 4
  %6 = alloca i32, align 4
  store ptr %0, ptr %4, align 8
  store i32 %1, ptr %5, align 4
  store i32 %2, ptr %6, align 4
  %7 = load ptr, ptr %4, align 8
  %8 = getelementptr inbounds %struct.CSzArEx, ptr %7, i32 0, i32 2
  %9 = load i64, ptr %8, align 8
  %10 = load ptr, ptr %4, align 8
  %11 = getelementptr inbounds %struct.CSzArEx, ptr %10, i32 0, i32 4
  %12 = load ptr, ptr %11, align 8
  %13 = load ptr, ptr %4, align 8
  %14 = getelementptr inbounds %struct.CSzArEx, ptr %13, i32 0, i32 3
  %15 = load ptr, ptr %14, align 8
  %16 = load i32, ptr %5, align 4
  %17 = zext i32 %16 to i64
  %18 = getelementptr inbounds i32, ptr %15, i64 %17
  %19 = load i32, ptr %18, align 4
  %20 = load i32, ptr %6, align 4
  %21 = add i32 %19, %20
  %22 = zext i32 %21 to i64
  %23 = getelementptr inbounds i64, ptr %12, i64 %22
  %24 = load i64, ptr %23, align 8
  %25 = add i64 %9, %24
  ret i64 %25
}