; Function Attrs: mustprogress nofree norecurse nosync nounwind willreturn memory(read, inaccessiblemem: none) uwtable
define i64 @SzArEx_GetFolderStreamPos(ptr noundef readonly captures(none) %0, i32 noundef %1, i32 noundef %2) local_unnamed_addr #4 {
  %4 = getelementptr inbounds nuw i8, ptr %0, i64 64
  %5 = load i64, ptr %4, align 8
  %6 = getelementptr inbounds nuw i8, ptr %0, i64 80
  %7 = load ptr, ptr %6, align 8
  %8 = getelementptr inbounds nuw i8, ptr %0, i64 72
  %9 = load ptr, ptr %8, align 8
  %10 = zext i32 %1 to i64
  %11 = getelementptr inbounds nuw i32, ptr %9, i64 %10
  %12 = load i32, ptr %11, align 4
  %13 = add i32 %12, %2
  %14 = zext i32 %13 to i64
  %15 = getelementptr inbounds nuw i64, ptr %7, i64 %14
  %16 = load i64, ptr %15, align 8
  %17 = add i64 %16, %5
  ret i64 %17
}